; ModuleID = '60/1022.c'
source_filename = "60/1022.c"
target datalayout = "e-m:e-p270:32:32-p271:32:32-p272:64:64-i64:64-f80:128-n8:16:32:64-S128"
target triple = "x86_64-pc-linux-gnu"

@.str = private unnamed_addr constant [3 x i8] c"%d\00", align 1
@.str.1 = private unnamed_addr constant [6 x i8] c"empty\00", align 1
@.str.2 = private unnamed_addr constant [7 x i8] c"%d %d\0A\00", align 1

; Function Attrs: noinline nounwind uwtable
define dso_local i32 @main() #0 {
  %1 = alloca i32, align 4
  %2 = alloca i32, align 4
  %3 = alloca [10000 x i32], align 16
  %4 = alloca i32, align 4
  %5 = alloca i32, align 4
  %6 = alloca i32, align 4
  %7 = alloca i32, align 4
  %8 = alloca [10000 x [2 x i32]], align 16
  %9 = alloca i32, align 4
  store i32 0, i32* %1, align 4
  store i32 1, i32* %6, align 4
  store i32 0, i32* %7, align 4
  %10 = call i32 (i8*, ...) @__isoc99_scanf(i8* getelementptr inbounds ([3 x i8], [3 x i8]* @.str, i64 0, i64 0), i32* %2)
  %11 = getelementptr inbounds [10000 x i32], [10000 x i32]* %3, i64 0, i64 0
  store i32 2, i32* %11, align 16
  store i32 3, i32* %4, align 4
  br label %12

12:                                               ; preds = %45, %0
  %13 = load i32, i32* %4, align 4
  %14 = load i32, i32* %2, align 4
  %15 = icmp sle i32 %13, %14
  br i1 %15, label %16, label %48

16:                                               ; preds = %12
  store i32 0, i32* %7, align 4
  store i32 2, i32* %5, align 4
  br label %17

17:                                               ; preds = %31, %16
  %18 = load i32, i32* %5, align 4
  %19 = load i32, i32* %4, align 4
  %20 = sub nsw i32 %19, 1
  %21 = icmp sle i32 %18, %20
  br i1 %21, label %22, label %34

22:                                               ; preds = %17
  %23 = load i32, i32* %4, align 4
  %24 = load i32, i32* %5, align 4
  %25 = srem i32 %23, %24
  %26 = icmp eq i32 %25, 0
  br i1 %26, label %27, label %30

27:                                               ; preds = %22
  %28 = load i32, i32* %7, align 4
  %29 = add nsw i32 %28, 1
  store i32 %29, i32* %7, align 4
  br label %30

30:                                               ; preds = %27, %22
  br label %31

31:                                               ; preds = %30
  %32 = load i32, i32* %5, align 4
  %33 = add nsw i32 %32, 1
  store i32 %33, i32* %5, align 4
  br label %17

34:                                               ; preds = %17
  %35 = load i32, i32* %7, align 4
  %36 = icmp eq i32 %35, 0
  br i1 %36, label %37, label %44

37:                                               ; preds = %34
  %38 = load i32, i32* %4, align 4
  %39 = load i32, i32* %6, align 4
  %40 = sext i32 %39 to i64
  %41 = getelementptr inbounds [10000 x i32], [10000 x i32]* %3, i64 0, i64 %40
  store i32 %38, i32* %41, align 4
  %42 = load i32, i32* %6, align 4
  %43 = add nsw i32 %42, 1
  store i32 %43, i32* %6, align 4
  br label %44

44:                                               ; preds = %37, %34
  br label %45

45:                                               ; preds = %44
  %46 = load i32, i32* %4, align 4
  %47 = add nsw i32 %46, 1
  store i32 %47, i32* %4, align 4
  br label %12

48:                                               ; preds = %12
  store i32 0, i32* %9, align 4
  store i32 0, i32* %4, align 4
  br label %49

49:                                               ; preds = %87, %48
  %50 = load i32, i32* %4, align 4
  %51 = load i32, i32* %6, align 4
  %52 = sub nsw i32 %51, 2
  %53 = icmp sle i32 %50, %52
  br i1 %53, label %54, label %90

54:                                               ; preds = %49
  %55 = load i32, i32* %4, align 4
  %56 = sext i32 %55 to i64
  %57 = getelementptr inbounds [10000 x i32], [10000 x i32]* %3, i64 0, i64 %56
  %58 = load i32, i32* %57, align 4
  %59 = load i32, i32* %4, align 4
  %60 = add nsw i32 %59, 1
  %61 = sext i32 %60 to i64
  %62 = getelementptr inbounds [10000 x i32], [10000 x i32]* %3, i64 0, i64 %61
  %63 = load i32, i32* %62, align 4
  %64 = sub nsw i32 %63, 2
  %65 = icmp eq i32 %58, %64
  br i1 %65, label %66, label %86

66:                                               ; preds = %54
  %67 = load i32, i32* %4, align 4
  %68 = sext i32 %67 to i64
  %69 = getelementptr inbounds [10000 x i32], [10000 x i32]* %3, i64 0, i64 %68
  %70 = load i32, i32* %69, align 4
  %71 = load i32, i32* %9, align 4
  %72 = sext i32 %71 to i64
  %73 = getelementptr inbounds [10000 x [2 x i32]], [10000 x [2 x i32]]* %8, i64 0, i64 %72
  %74 = getelementptr inbounds [2 x i32], [2 x i32]* %73, i64 0, i64 0
  store i32 %70, i32* %74, align 8
  %75 = load i32, i32* %4, align 4
  %76 = add nsw i32 %75, 1
  %77 = sext i32 %76 to i64
  %78 = getelementptr inbounds [10000 x i32], [10000 x i32]* %3, i64 0, i64 %77
  %79 = load i32, i32* %78, align 4
  %80 = load i32, i32* %9, align 4
  %81 = sext i32 %80 to i64
  %82 = getelementptr inbounds [10000 x [2 x i32]], [10000 x [2 x i32]]* %8, i64 0, i64 %81
  %83 = getelementptr inbounds [2 x i32], [2 x i32]* %82, i64 0, i64 1
  store i32 %79, i32* %83, align 4
  %84 = load i32, i32* %9, align 4
  %85 = add nsw i32 %84, 1
  store i32 %85, i32* %9, align 4
  br label %86

86:                                               ; preds = %66, %54
  br label %87

87:                                               ; preds = %86
  %88 = load i32, i32* %4, align 4
  %89 = add nsw i32 %88, 1
  store i32 %89, i32* %4, align 4
  br label %49

90:                                               ; preds = %49
  %91 = load i32, i32* %9, align 4
  %92 = icmp eq i32 %91, 0
  br i1 %92, label %93, label %95

93:                                               ; preds = %90
  %94 = call i32 (i8*, ...) @printf(i8* getelementptr inbounds ([6 x i8], [6 x i8]* @.str.1, i64 0, i64 0))
  br label %117

95:                                               ; preds = %90
  store i32 0, i32* %4, align 4
  br label %96

96:                                               ; preds = %113, %95
  %97 = load i32, i32* %4, align 4
  %98 = load i32, i32* %9, align 4
  %99 = sub nsw i32 %98, 1
  %100 = icmp sle i32 %97, %99
  br i1 %100, label %101, label %116

101:                                              ; preds = %96
  %102 = load i32, i32* %4, align 4
  %103 = sext i32 %102 to i64
  %104 = getelementptr inbounds [10000 x [2 x i32]], [10000 x [2 x i32]]* %8, i64 0, i64 %103
  %105 = getelementptr inbounds [2 x i32], [2 x i32]* %104, i64 0, i64 0
  %106 = load i32, i32* %105, align 8
  %107 = load i32, i32* %4, align 4
  %108 = sext i32 %107 to i64
  %109 = getelementptr inbounds [10000 x [2 x i32]], [10000 x [2 x i32]]* %8, i64 0, i64 %108
  %110 = getelementptr inbounds [2 x i32], [2 x i32]* %109, i64 0, i64 1
  %111 = load i32, i32* %110, align 4
  %112 = call i32 (i8*, ...) @printf(i8* getelementptr inbounds ([7 x i8], [7 x i8]* @.str.2, i64 0, i64 0), i32 %106, i32 %111)
  br label %113

113:                                              ; preds = %101
  %114 = load i32, i32* %4, align 4
  %115 = add nsw i32 %114, 1
  store i32 %115, i32* %4, align 4
  br label %96

116:                                              ; preds = %96
  br label %117

117:                                              ; preds = %116, %93
  ret i32 0
}

declare dso_local i32 @__isoc99_scanf(i8*, ...) #1

declare dso_local i32 @printf(i8*, ...) #1


!llvm.module.flags = !{!0}
!llvm.ident = !{!1}

!0 = !{i32 1, !"wchar_size", i32 4}
!1 = !{!"clang version 10.0.0-4ubuntu1 "}
